; Function Attrs: mustprogress nounwind uwtable
define hidden void @_ZN17SaveLiveRegisters20xmm_register_restoreERKNS_15XMMRegisterDataE(ptr nocapture noundef nonnull align 8 dereferenceable(88) %0, ptr nocapture noundef nonnull readonly align 4 dereferenceable(8) %1) local_unnamed_addr #0 align 2 {
  %3 = alloca %class.C2_MacroAssembler, align 8
  %4 = load i32, ptr %1, align 4
  %5 = sext i32 %4 to i64
  %6 = getelementptr inbounds %"class.XMMRegister::XMMRegisterImpl", ptr getelementptr inbounds (i8, ptr @all_XMMRegisterImpls, i64 1), i64 %5
  %7 = ptrtoint ptr %6 to i64
  %8 = trunc i64 %7 to i32
  %9 = sub i32 %8, ptrtoint (ptr getelementptr inbounds (i8, ptr @all_XMMRegisterImpls, i64 1) to i32)
  %10 = shl i32 %9, 4
  %11 = sext i32 %10 to i64
  %12 = getelementptr %class.VMRegImpl, ptr getelementptr inbounds (i8, ptr @all_VMRegs, i64 1), i64 %11
  %13 = getelementptr i8, ptr %12, i64 80
  %.not.i = icmp ult ptr %13, getelementptr inbounds (i8, ptr @all_VMRegs, i64 617)
  %14 = ptrtoint ptr %13 to i64
  %15 = trunc i64 %14 to i32
  br i1 %.not.i, label %18, label %16

16:                                               ; preds = %2
  %17 = add i32 %15, add (i32 sub (i32 0, i32 ptrtoint (ptr getelementptr inbounds (i8, ptr @all_VMRegs, i64 617) to i32)), i32 616)
  br label %_ZN7OptoReg10as_OptoRegEP9VMRegImpl.exit

18:                                               ; preds = %2
  %19 = sub i32 %15, ptrtoint (ptr getelementptr inbounds (i8, ptr @all_VMRegs, i64 1) to i32)
  %.not4.i = icmp eq i32 %19, -1
  br i1 %.not4.i, label %_ZN7OptoReg10as_OptoRegEP9VMRegImpl.exit, label %20

20:                                               ; preds = %18
  %21 = sext i32 %19 to i64
  %22 = getelementptr inbounds [609 x i32], ptr @_ZN7OptoReg7vm2optoE, i64 0, i64 %21
  %23 = load i32, ptr %22, align 4
  br label %_ZN7OptoReg10as_OptoRegEP9VMRegImpl.exit

_ZN7OptoReg10as_OptoRegEP9VMRegImpl.exit:         ; preds = %16, %18, %20
  %.0.i = phi i32 [ %17, %16 ], [ %23, %20 ], [ -1, %18 ]
  %24 = getelementptr inbounds i8, ptr %1, i64 4
  %25 = load i32, ptr %24, align 4
  %26 = add i32 %25, -8
  %27 = tail call i32 @llvm.fshl.i32(i32 %26, i32 %26, i32 29)
  %28 = icmp ult i32 %27, 8
  br i1 %28, label %switch.hole_check, label %29

29:                                               ; preds = %switch.hole_check, %_ZN7OptoReg10as_OptoRegEP9VMRegImpl.exit
  %30 = load ptr, ptr @g_assert_poison, align 8
  store i8 88, ptr %30, align 1
  tail call void (i32, ptr, i32, ptr, ...) @_Z12report_fatal11VMErrorTypePKciS1_z(i32 noundef -536870912, ptr noundef nonnull @.str, i32 noundef 527, ptr noundef nonnull @.str.8, i32 noundef %25) #13
  unreachable

switch.hole_check:                                ; preds = %_ZN7OptoReg10as_OptoRegEP9VMRegImpl.exit
  %switch.maskindex = trunc nuw i32 %27 to i8
  %switch.shifted = lshr i8 -117, %switch.maskindex
  %switch.lobit = trunc i8 %switch.shifted to i1
  br i1 %switch.lobit, label %switch.lookup, label %29

switch.lookup:                                    ; preds = %switch.hole_check
  %31 = zext nneg i32 %27 to i64
  %switch.gep = getelementptr inbounds [8 x i32], ptr @switch.table._ZN17SaveLiveRegisters20xmm_register_restoreERKNS_15XMMRegisterDataE, i64 0, i64 %31
  %switch.load = load i32, ptr %switch.gep, align 4
  %32 = load ptr, ptr %0, align 8
  %33 = getelementptr inbounds i8, ptr %32, i64 8
  %34 = load ptr, ptr %33, align 8
  %35 = getelementptr inbounds i8, ptr %34, i64 80
  %36 = load ptr, ptr %35, align 8
  call void @_ZN17AbstractAssemblerC2EP10CodeBuffer(ptr noundef nonnull align 8 dereferenceable(24) %3, ptr noundef %36) #12
  store ptr getelementptr inbounds inrange(-16, 8) (i8, ptr @_ZTV9Assembler, i64 16), ptr %3, align 8
  call void @_ZN9Assembler15init_attributesEv(ptr noundef nonnull align 8 dereferenceable(40) %3) #12
  store ptr getelementptr inbounds inrange(-16, 40) (i8, ptr @_ZTV17C2_MacroAssembler, i64 16), ptr %3, align 8
  %37 = getelementptr inbounds i8, ptr %0, i64 84
  %38 = load i32, ptr %37, align 4
  %39 = load ptr, ptr @tty, align 8
  call void @_Z16vec_spill_helperP17C2_MacroAssemblerbiijP12outputStream(ptr noundef nonnull %3, i1 noundef zeroext true, i32 noundef %38, i32 noundef %.0.i, i32 noundef %switch.load, ptr noundef %39) #12
  %40 = load i32, ptr %24, align 4
  %41 = load i32, ptr %37, align 4
  %42 = add nsw i32 %41, %40
  store i32 %42, ptr %37, align 4
  ret void
}